target datalayout = "e-m:e-p270:32:32-p271:32:32-p272:64:64-i64:64-i128:128-f80:128-n8:16:32:64-S128"
target triple = "x86_64-pc-linux-gnu"

%"class.pxrInternal_v0_24__pxrReserved__::TraceEventList" = type { %"class.pxrInternal_v0_24__pxrReserved__::TraceEventContainer", %"class.std::__cxx11::list", %"class.pxrInternal_v0_24__pxrReserved__::TraceDataBuffer" }
%"class.pxrInternal_v0_24__pxrReserved__::TraceEventContainer" = type { ptr, ptr, ptr, i64 }
%"class.std::__cxx11::list" = type { %"class.std::__cxx11::_List_base" }
%"class.std::__cxx11::_List_base" = type { %"struct.std::__cxx11::_List_base<std::unordered_set<pxrInternal_v0_24__pxrReserved__::TraceDynamicKey, pxrInternal_v0_24__pxrReserved__::TraceDynamicKey::HashFunctor>, std::allocator<std::unordered_set<pxrInternal_v0_24__pxrReserved__::TraceDynamicKey, pxrInternal_v0_24__pxrReserved__::TraceDynamicKey::HashFunctor>>>::_List_impl" }
%"struct.std::__cxx11::_List_base<std::unordered_set<pxrInternal_v0_24__pxrReserved__::TraceDynamicKey, pxrInternal_v0_24__pxrReserved__::TraceDynamicKey::HashFunctor>, std::allocator<std::unordered_set<pxrInternal_v0_24__pxrReserved__::TraceDynamicKey, pxrInternal_v0_24__pxrReserved__::TraceDynamicKey::HashFunctor>>>::_List_impl" = type { %"struct.std::__detail::_List_node_header" }
%"struct.std::__detail::_List_node_header" = type { %"struct.std::__detail::_List_node_base", i64 }
%"struct.std::__detail::_List_node_base" = type { ptr, ptr }
%"class.pxrInternal_v0_24__pxrReserved__::TraceDataBuffer" = type { %"class.pxrInternal_v0_24__pxrReserved__::TraceDataBuffer::Allocator" }
%"class.pxrInternal_v0_24__pxrReserved__::TraceDataBuffer::Allocator" = type { ptr, ptr, %"class.std::deque", i64 }
%"class.std::deque" = type { %"class.std::_Deque_base" }
%"class.std::_Deque_base" = type { %"struct.std::_Deque_base<std::unique_ptr<unsigned char[]>, std::allocator<std::unique_ptr<unsigned char[]>>>::_Deque_impl" }
%"struct.std::_Deque_base<std::unique_ptr<unsigned char[]>, std::allocator<std::unique_ptr<unsigned char[]>>>::_Deque_impl" = type { %"struct.std::_Deque_base<std::unique_ptr<unsigned char[]>, std::allocator<std::unique_ptr<unsigned char[]>>>::_Deque_impl_data" }
%"struct.std::_Deque_base<std::unique_ptr<unsigned char[]>, std::allocator<std::unique_ptr<unsigned char[]>>>::_Deque_impl_data" = type { ptr, i64, %"struct.std::_Deque_iterator", %"struct.std::_Deque_iterator" }
%"struct.std::_Deque_iterator" = type { ptr, ptr, ptr, ptr }
%"struct.std::_List_iterator" = type { ptr }
%"struct.std::_List_const_iterator" = type { ptr }

; Function Attrs: mustprogress nounwind uwtable
define linkonce_odr noundef zeroext i1 @_ZNSt11__alloc_neqISaISt10_List_nodeISt13unordered_setIN32pxrInternal_v0_24__pxrReserved__15TraceDynamicKeyENS3_11HashFunctorESt8equal_toIS3_ESaIS3_EEEELb1EE8_S_do_itERKSA_SD_(ptr noundef nonnull align 1 dereferenceable(1) %0, ptr noundef nonnull align 1 dereferenceable(1) %1) #2 comdat align 2 {
  %3 = alloca ptr, align 8
  %4 = alloca ptr, align 8
  store ptr %0, ptr %3, align 8
  store ptr %1, ptr %4, align 8
  ret i1 false
}

; Function Attrs: mustprogress nounwind uwtable
define linkonce_odr noundef nonnull align 1 dereferenceable(1) ptr @_ZNSt7__cxx1110_List_baseISt13unordered_setIN32pxrInternal_v0_24__pxrReserved__15TraceDynamicKeyENS3_11HashFunctorESt8equal_toIS3_ESaIS3_EESaIS8_EE21_M_get_Node_allocatorEv(ptr noundef nonnull align 8 dereferenceable(24) %0) #2 comdat align 2 {
  %2 = alloca ptr, align 8
  store ptr %0, ptr %2, align 8
  %3 = load ptr, ptr %2, align 8
  %4 = getelementptr inbounds nuw %"class.std::__cxx11::_List_base", ptr %3, i32 0, i32 0
  ret ptr %4
}

; Function Attrs: noreturn nounwind uwtable
define linkonce_odr hidden void @__clang_call_terminate(ptr noundef %0) #4 comdat {
  %2 = call ptr @__cxa_begin_catch(ptr %0) #10
  call void @_ZSt9terminatev() #11
  unreachable
}

; Function Attrs: mustprogress nounwind uwtable
define linkonce_odr void @_ZNSt7__cxx1110_List_baseISt13unordered_setIN32pxrInternal_v0_24__pxrReserved__15TraceDynamicKeyENS3_11HashFunctorESt8equal_toIS3_ESaIS3_EESaIS8_EE11_M_set_sizeEm(ptr noundef nonnull align 8 dereferenceable(24) %0, i64 noundef %1) #2 comdat align 2 {
  %3 = alloca ptr, align 8
  %4 = alloca i64, align 8
  store ptr %0, ptr %3, align 8
  store i64 %1, ptr %4, align 8
  %5 = load ptr, ptr %3, align 8
  %6 = load i64, ptr %4, align 8
  %7 = getelementptr inbounds nuw %"class.std::__cxx11::_List_base", ptr %5, i32 0, i32 0
  %8 = getelementptr inbounds nuw %"struct.std::__cxx11::_List_base<std::unordered_set<pxrInternal_v0_24__pxrReserved__::TraceDynamicKey, pxrInternal_v0_24__pxrReserved__::TraceDynamicKey::HashFunctor>, std::allocator<std::unordered_set<pxrInternal_v0_24__pxrReserved__::TraceDynamicKey, pxrInternal_v0_24__pxrReserved__::TraceDynamicKey::HashFunctor>>>::_List_impl", ptr %7, i32 0, i32 0
  %9 = getelementptr inbounds nuw %"struct.std::__detail::_List_node_header", ptr %8, i32 0, i32 1
  store i64 %6, ptr %9, align 8
  ret void
}

; Function Attrs: mustprogress nounwind uwtable
define linkonce_odr void @_ZNSt7__cxx1110_List_baseISt13unordered_setIN32pxrInternal_v0_24__pxrReserved__15TraceDynamicKeyENS3_11HashFunctorESt8equal_toIS3_ESaIS3_EESaIS8_EE11_M_inc_sizeEm(ptr noundef nonnull align 8 dereferenceable(24) %0, i64 noundef %1) #2 comdat align 2 {
  %3 = alloca ptr, align 8
  %4 = alloca i64, align 8
  store ptr %0, ptr %3, align 8
  store i64 %1, ptr %4, align 8
  %5 = load ptr, ptr %3, align 8
  %6 = load i64, ptr %4, align 8
  %7 = getelementptr inbounds nuw %"class.std::__cxx11::_List_base", ptr %5, i32 0, i32 0
  %8 = getelementptr inbounds nuw %"struct.std::__cxx11::_List_base<std::unordered_set<pxrInternal_v0_24__pxrReserved__::TraceDynamicKey, pxrInternal_v0_24__pxrReserved__::TraceDynamicKey::HashFunctor>, std::allocator<std::unordered_set<pxrInternal_v0_24__pxrReserved__::TraceDynamicKey, pxrInternal_v0_24__pxrReserved__::TraceDynamicKey::HashFunctor>>>::_List_impl", ptr %7, i32 0, i32 0
  %9 = getelementptr inbounds nuw %"struct.std::__detail::_List_node_header", ptr %8, i32 0, i32 1
  %10 = load i64, ptr %9, align 8
  %11 = add i64 %10, %6
  store i64 %11, ptr %9, align 8
  ret void
}

; Function Attrs: mustprogress nounwind uwtable
define linkonce_odr noundef i64 @_ZNKSt7__cxx1110_List_baseISt13unordered_setIN32pxrInternal_v0_24__pxrReserved__15TraceDynamicKeyENS3_11HashFunctorESt8equal_toIS3_ESaIS3_EESaIS8_EE11_M_get_sizeEv(ptr noundef nonnull align 8 dereferenceable(24) %0) #2 comdat align 2 {
  %2 = alloca ptr, align 8
  store ptr %0, ptr %2, align 8
  %3 = load ptr, ptr %2, align 8
  %4 = getelementptr inbounds nuw %"class.std::__cxx11::_List_base", ptr %3, i32 0, i32 0
  %5 = getelementptr inbounds nuw %"struct.std::__cxx11::_List_base<std::unordered_set<pxrInternal_v0_24__pxrReserved__::TraceDynamicKey, pxrInternal_v0_24__pxrReserved__::TraceDynamicKey::HashFunctor>, std::allocator<std::unordered_set<pxrInternal_v0_24__pxrReserved__::TraceDynamicKey, pxrInternal_v0_24__pxrReserved__::TraceDynamicKey::HashFunctor>>>::_List_impl", ptr %4, i32 0, i32 0
  %6 = getelementptr inbounds nuw %"struct.std::__detail::_List_node_header", ptr %5, i32 0, i32 1
  %7 = load i64, ptr %6, align 8
  ret i64 %7
}

; Function Attrs: mustprogress nounwind uwtable
define linkonce_odr void @_ZNSt7__cxx114listISt13unordered_setIN32pxrInternal_v0_24__pxrReserved__15TraceDynamicKeyENS3_11HashFunctorESt8equal_toIS3_ESaIS3_EESaIS8_EE11_M_transferESt14_List_iteratorIS8_ESC_SC_(ptr noundef nonnull align 8 dereferenceable(24) %0, ptr %1, ptr %2, ptr %3) #2 comdat align 2 {
  %5 = alloca %"struct.std::_List_iterator", align 8
  %6 = alloca %"struct.std::_List_iterator", align 8
  %7 = alloca %"struct.std::_List_iterator", align 8
  %8 = alloca ptr, align 8
  %9 = getelementptr inbounds nuw %"struct.std::_List_iterator", ptr %5, i32 0, i32 0
  store ptr %1, ptr %9, align 8
  %10 = getelementptr inbounds nuw %"struct.std::_List_iterator", ptr %6, i32 0, i32 0
  store ptr %2, ptr %10, align 8
  %11 = getelementptr inbounds nuw %"struct.std::_List_iterator", ptr %7, i32 0, i32 0
  store ptr %3, ptr %11, align 8
  store ptr %0, ptr %8, align 8
  %12 = getelementptr inbounds nuw %"struct.std::_List_iterator", ptr %5, i32 0, i32 0
  %13 = load ptr, ptr %12, align 8
  %14 = getelementptr inbounds nuw %"struct.std::_List_iterator", ptr %6, i32 0, i32 0
  %15 = load ptr, ptr %14, align 8
  %16 = getelementptr inbounds nuw %"struct.std::_List_iterator", ptr %7, i32 0, i32 0
  %17 = load ptr, ptr %16, align 8
  call void @_ZNSt8__detail15_List_node_base11_M_transferEPS0_S1_(ptr noundef nonnull align 8 dereferenceable(16) %13, ptr noundef %15, ptr noundef %17) #10
  ret void
}

; Function Attrs: mustprogress nounwind uwtable
define linkonce_odr ptr @_ZNSt7__cxx114listISt13unordered_setIN32pxrInternal_v0_24__pxrReserved__15TraceDynamicKeyENS3_11HashFunctorESt8equal_toIS3_ESaIS3_EESaIS8_EE5beginEv(ptr noundef nonnull align 8 dereferenceable(24) %0) #2 comdat align 2 {
  %2 = alloca %"struct.std::_List_iterator", align 8
  %3 = alloca ptr, align 8
  store ptr %0, ptr %3, align 8
  %4 = load ptr, ptr %3, align 8
  %5 = getelementptr inbounds nuw %"class.std::__cxx11::_List_base", ptr %4, i32 0, i32 0
  %6 = getelementptr inbounds nuw %"struct.std::__cxx11::_List_base<std::unordered_set<pxrInternal_v0_24__pxrReserved__::TraceDynamicKey, pxrInternal_v0_24__pxrReserved__::TraceDynamicKey::HashFunctor>, std::allocator<std::unordered_set<pxrInternal_v0_24__pxrReserved__::TraceDynamicKey, pxrInternal_v0_24__pxrReserved__::TraceDynamicKey::HashFunctor>>>::_List_impl", ptr %5, i32 0, i32 0
  %7 = getelementptr inbounds nuw %"struct.std::__detail::_List_node_base", ptr %6, i32 0, i32 0
  %8 = load ptr, ptr %7, align 8
  call void @_ZNSt14_List_iteratorISt13unordered_setIN32pxrInternal_v0_24__pxrReserved__15TraceDynamicKeyENS2_11HashFunctorESt8equal_toIS2_ESaIS2_EEEC2EPNSt8__detail15_List_node_baseE(ptr noundef nonnull align 8 dereferenceable(8) %2, ptr noundef %8) #10
  %9 = getelementptr inbounds nuw %"struct.std::_List_iterator", ptr %2, i32 0, i32 0
  %10 = load ptr, ptr %9, align 8
  ret ptr %10
}

; Function Attrs: mustprogress nounwind uwtable
define linkonce_odr ptr @_ZNKSt20_List_const_iteratorISt13unordered_setIN32pxrInternal_v0_24__pxrReserved__15TraceDynamicKeyENS2_11HashFunctorESt8equal_toIS2_ESaIS2_EEE13_M_const_castEv(ptr noundef nonnull align 8 dereferenceable(8) %0) #2 comdat align 2 {
  %2 = alloca %"struct.std::_List_iterator", align 8
  %3 = alloca ptr, align 8
  store ptr %0, ptr %3, align 8
  %4 = load ptr, ptr %3, align 8
  %5 = getelementptr inbounds nuw %"struct.std::_List_const_iterator", ptr %4, i32 0, i32 0
  %6 = load ptr, ptr %5, align 8
  call void @_ZNSt14_List_iteratorISt13unordered_setIN32pxrInternal_v0_24__pxrReserved__15TraceDynamicKeyENS2_11HashFunctorESt8equal_toIS2_ESaIS2_EEEC2EPNSt8__detail15_List_node_baseE(ptr noundef nonnull align 8 dereferenceable(8) %2, ptr noundef %6) #10
  %7 = getelementptr inbounds nuw %"struct.std::_List_iterator", ptr %2, i32 0, i32 0
  %8 = load ptr, ptr %7, align 8
  ret ptr %8
}

; Function Attrs: mustprogress nounwind uwtable
define linkonce_odr void @_ZNSt7__cxx114listISt13unordered_setIN32pxrInternal_v0_24__pxrReserved__15TraceDynamicKeyENS3_11HashFunctorESt8equal_toIS3_ESaIS3_EESaIS8_EE25_M_check_equal_allocatorsERSA_(ptr noundef nonnull align 8 dereferenceable(24) %0, ptr noundef nonnull align 8 dereferenceable(24) %1) #2 comdat align 2 personality ptr @__gxx_personality_v0 {
  %3 = alloca ptr, align 8
  %4 = alloca ptr, align 8
  store ptr %0, ptr %3, align 8
  store ptr %1, ptr %4, align 8
  %5 = load ptr, ptr %3, align 8
  %6 = call noundef nonnull align 1 dereferenceable(1) ptr @_ZNSt7__cxx1110_List_baseISt13unordered_setIN32pxrInternal_v0_24__pxrReserved__15TraceDynamicKeyENS3_11HashFunctorESt8equal_toIS3_ESaIS3_EESaIS8_EE21_M_get_Node_allocatorEv(ptr noundef nonnull align 8 dereferenceable(24) %5) #10
  %7 = load ptr, ptr %4, align 8
  %8 = call noundef nonnull align 1 dereferenceable(1) ptr @_ZNSt7__cxx1110_List_baseISt13unordered_setIN32pxrInternal_v0_24__pxrReserved__15TraceDynamicKeyENS3_11HashFunctorESt8equal_toIS3_ESaIS3_EESaIS8_EE21_M_get_Node_allocatorEv(ptr noundef nonnull align 8 dereferenceable(24) %7) #10
  %9 = invoke noundef zeroext i1 @_ZNSt11__alloc_neqISaISt10_List_nodeISt13unordered_setIN32pxrInternal_v0_24__pxrReserved__15TraceDynamicKeyENS3_11HashFunctorESt8equal_toIS3_ESaIS3_EEEELb1EE8_S_do_itERKSA_SD_(ptr noundef nonnull align 1 dereferenceable(1) %6, ptr noundef nonnull align 1 dereferenceable(1) %8)
          to label %10 unwind label %13

10:                                               ; preds = %2
  br i1 %9, label %11, label %12

11:                                               ; preds = %10
  call void @abort() #11
  unreachable

12:                                               ; preds = %10
  ret void

13:                                               ; preds = %2
  %14 = landingpad { ptr, i32 }
          catch ptr null
  %15 = extractvalue { ptr, i32 } %14, 0
  call void @__clang_call_terminate(ptr %15) #11
  unreachable
}

; Function Attrs: mustprogress nounwind uwtable
define linkonce_odr noundef zeroext i1 @_ZNKSt7__cxx114listISt13unordered_setIN32pxrInternal_v0_24__pxrReserved__15TraceDynamicKeyENS3_11HashFunctorESt8equal_toIS3_ESaIS3_EESaIS8_EE5emptyEv(ptr noundef nonnull align 8 dereferenceable(24) %0) #2 comdat align 2 {
  %2 = alloca ptr, align 8
  store ptr %0, ptr %2, align 8
  %3 = load ptr, ptr %2, align 8
  %4 = getelementptr inbounds nuw %"class.std::__cxx11::_List_base", ptr %3, i32 0, i32 0
  %5 = getelementptr inbounds nuw %"struct.std::__cxx11::_List_base<std::unordered_set<pxrInternal_v0_24__pxrReserved__::TraceDynamicKey, pxrInternal_v0_24__pxrReserved__::TraceDynamicKey::HashFunctor>, std::allocator<std::unordered_set<pxrInternal_v0_24__pxrReserved__::TraceDynamicKey, pxrInternal_v0_24__pxrReserved__::TraceDynamicKey::HashFunctor>>>::_List_impl", ptr %4, i32 0, i32 0
  %6 = getelementptr inbounds nuw %"struct.std::__detail::_List_node_base", ptr %5, i32 0, i32 0
  %7 = load ptr, ptr %6, align 8
  %8 = getelementptr inbounds nuw %"class.std::__cxx11::_List_base", ptr %3, i32 0, i32 0
  %9 = getelementptr inbounds nuw %"struct.std::__cxx11::_List_base<std::unordered_set<pxrInternal_v0_24__pxrReserved__::TraceDynamicKey, pxrInternal_v0_24__pxrReserved__::TraceDynamicKey::HashFunctor>, std::allocator<std::unordered_set<pxrInternal_v0_24__pxrReserved__::TraceDynamicKey, pxrInternal_v0_24__pxrReserved__::TraceDynamicKey::HashFunctor>>>::_List_impl", ptr %8, i32 0, i32 0
  %10 = icmp eq ptr %7, %9
  ret i1 %10
}

; Function Attrs: mustprogress nounwind uwtable
define linkonce_odr void @_ZNSt14_List_iteratorISt13unordered_setIN32pxrInternal_v0_24__pxrReserved__15TraceDynamicKeyENS2_11HashFunctorESt8equal_toIS2_ESaIS2_EEEC2EPNSt8__detail15_List_node_baseE(ptr noundef nonnull align 8 dereferenceable(8) %0, ptr noundef %1) unnamed_addr #2 comdat align 2 {
  %3 = alloca ptr, align 8
  %4 = alloca ptr, align 8
  store ptr %0, ptr %3, align 8
  store ptr %1, ptr %4, align 8
  %5 = load ptr, ptr %3, align 8
  %6 = getelementptr inbounds nuw %"struct.std::_List_iterator", ptr %5, i32 0, i32 0
  %7 = load ptr, ptr %4, align 8
  store ptr %7, ptr %6, align 8
  ret void
}

; Function Attrs: mustprogress nounwind uwtable
define linkonce_odr void @_ZNSt7__cxx114listISt13unordered_setIN32pxrInternal_v0_24__pxrReserved__15TraceDynamicKeyENS3_11HashFunctorESt8equal_toIS3_ESaIS3_EESaIS8_EE6spliceESt20_List_const_iteratorIS8_EOSA_(ptr noundef nonnull align 8 dereferenceable(24) %0, ptr %1, ptr noundef nonnull align 8 dereferenceable(24) %2) #2 comdat align 2 personality ptr @__gxx_personality_v0 {
  %4 = alloca %"struct.std::_List_const_iterator", align 8
  %5 = alloca ptr, align 8
  %6 = alloca ptr, align 8
  %7 = alloca %"struct.std::_List_iterator", align 8
  %8 = alloca %"struct.std::_List_iterator", align 8
  %9 = alloca %"struct.std::_List_iterator", align 8
  %10 = getelementptr inbounds nuw %"struct.std::_List_const_iterator", ptr %4, i32 0, i32 0
  store ptr %1, ptr %10, align 8
  store ptr %0, ptr %5, align 8
  store ptr %2, ptr %6, align 8
  %11 = load ptr, ptr %5, align 8
  %12 = load ptr, ptr %6, align 8
  %13 = call noundef zeroext i1 @_ZNKSt7__cxx114listISt13unordered_setIN32pxrInternal_v0_24__pxrReserved__15TraceDynamicKeyENS3_11HashFunctorESt8equal_toIS3_ESaIS3_EESaIS8_EE5emptyEv(ptr noundef nonnull align 8 dereferenceable(24) %12) #10
  br i1 %13, label %36, label %14

14:                                               ; preds = %3
  %15 = load ptr, ptr %6, align 8
  call void @_ZNSt7__cxx114listISt13unordered_setIN32pxrInternal_v0_24__pxrReserved__15TraceDynamicKeyENS3_11HashFunctorESt8equal_toIS3_ESaIS3_EESaIS8_EE25_M_check_equal_allocatorsERSA_(ptr noundef nonnull align 8 dereferenceable(24) %11, ptr noundef nonnull align 8 dereferenceable(24) %15) #10
  %16 = call ptr @_ZNKSt20_List_const_iteratorISt13unordered_setIN32pxrInternal_v0_24__pxrReserved__15TraceDynamicKeyENS2_11HashFunctorESt8equal_toIS2_ESaIS2_EEE13_M_const_castEv(ptr noundef nonnull align 8 dereferenceable(8) %4) #10
  %17 = getelementptr inbounds nuw %"struct.std::_List_iterator", ptr %7, i32 0, i32 0
  store ptr %16, ptr %17, align 8
  %18 = load ptr, ptr %6, align 8
  %19 = call ptr @_ZNSt7__cxx114listISt13unordered_setIN32pxrInternal_v0_24__pxrReserved__15TraceDynamicKeyENS3_11HashFunctorESt8equal_toIS3_ESaIS3_EESaIS8_EE5beginEv(ptr noundef nonnull align 8 dereferenceable(24) %18) #10
  %20 = getelementptr inbounds nuw %"struct.std::_List_iterator", ptr %8, i32 0, i32 0
  store ptr %19, ptr %20, align 8
  %21 = load ptr, ptr %6, align 8
  %22 = call ptr @_ZNSt7__cxx114listISt13unordered_setIN32pxrInternal_v0_24__pxrReserved__15TraceDynamicKeyENS3_11HashFunctorESt8equal_toIS3_ESaIS3_EESaIS8_EE3endEv(ptr noundef nonnull align 8 dereferenceable(24) %21) #10
  %23 = getelementptr inbounds nuw %"struct.std::_List_iterator", ptr %9, i32 0, i32 0
  store ptr %22, ptr %23, align 8
  %24 = getelementptr inbounds nuw %"struct.std::_List_iterator", ptr %7, i32 0, i32 0
  %25 = load ptr, ptr %24, align 8
  %26 = getelementptr inbounds nuw %"struct.std::_List_iterator", ptr %8, i32 0, i32 0
  %27 = load ptr, ptr %26, align 8
  %28 = getelementptr inbounds nuw %"struct.std::_List_iterator", ptr %9, i32 0, i32 0
  %29 = load ptr, ptr %28, align 8
  invoke void @_ZNSt7__cxx114listISt13unordered_setIN32pxrInternal_v0_24__pxrReserved__15TraceDynamicKeyENS3_11HashFunctorESt8equal_toIS3_ESaIS3_EESaIS8_EE11_M_transferESt14_List_iteratorIS8_ESC_SC_(ptr noundef nonnull align 8 dereferenceable(24) %11, ptr %25, ptr %27, ptr %29)
          to label %30 unwind label %37

30:                                               ; preds = %14
  %31 = load ptr, ptr %6, align 8
  %32 = invoke noundef i64 @_ZNKSt7__cxx1110_List_baseISt13unordered_setIN32pxrInternal_v0_24__pxrReserved__15TraceDynamicKeyENS3_11HashFunctorESt8equal_toIS3_ESaIS3_EESaIS8_EE11_M_get_sizeEv(ptr noundef nonnull align 8 dereferenceable(24) %31)
          to label %33 unwind label %37

33:                                               ; preds = %30
  call void @_ZNSt7__cxx1110_List_baseISt13unordered_setIN32pxrInternal_v0_24__pxrReserved__15TraceDynamicKeyENS3_11HashFunctorESt8equal_toIS3_ESaIS3_EESaIS8_EE11_M_inc_sizeEm(ptr noundef nonnull align 8 dereferenceable(24) %11, i64 noundef %32)
  %34 = load ptr, ptr %6, align 8
  invoke void @_ZNSt7__cxx1110_List_baseISt13unordered_setIN32pxrInternal_v0_24__pxrReserved__15TraceDynamicKeyENS3_11HashFunctorESt8equal_toIS3_ESaIS3_EESaIS8_EE11_M_set_sizeEm(ptr noundef nonnull align 8 dereferenceable(24) %34, i64 noundef 0)
          to label %35 unwind label %37

35:                                               ; preds = %33
  br label %36

36:                                               ; preds = %35, %3
  ret void

37:                                               ; preds = %33, %30, %14
  %38 = landingpad { ptr, i32 }
          catch ptr null
  %39 = extractvalue { ptr, i32 } %38, 0
  call void @__clang_call_terminate(ptr %39) #11
  unreachable
}

; Function Attrs: mustprogress nounwind uwtable
define linkonce_odr void @_ZNSt20_List_const_iteratorISt13unordered_setIN32pxrInternal_v0_24__pxrReserved__15TraceDynamicKeyENS2_11HashFunctorESt8equal_toIS2_ESaIS2_EEEC2ERKSt14_List_iteratorIS7_E(ptr noundef nonnull align 8 dereferenceable(8) %0, ptr noundef nonnull align 8 dereferenceable(8) %1) unnamed_addr #2 comdat align 2 {
  %3 = alloca ptr, align 8
  %4 = alloca ptr, align 8
  store ptr %0, ptr %3, align 8
  store ptr %1, ptr %4, align 8
  %5 = load ptr, ptr %3, align 8
  %6 = getelementptr inbounds nuw %"struct.std::_List_const_iterator", ptr %5, i32 0, i32 0
  %7 = load ptr, ptr %4, align 8
  %8 = getelementptr inbounds nuw %"struct.std::_List_iterator", ptr %7, i32 0, i32 0
  %9 = load ptr, ptr %8, align 8
  store ptr %9, ptr %6, align 8
  ret void
}

; Function Attrs: mustprogress nounwind uwtable
define linkonce_odr ptr @_ZNSt7__cxx114listISt13unordered_setIN32pxrInternal_v0_24__pxrReserved__15TraceDynamicKeyENS3_11HashFunctorESt8equal_toIS3_ESaIS3_EESaIS8_EE3endEv(ptr noundef nonnull align 8 dereferenceable(24) %0) #2 comdat align 2 {
  %2 = alloca %"struct.std::_List_iterator", align 8
  %3 = alloca ptr, align 8
  store ptr %0, ptr %3, align 8
  %4 = load ptr, ptr %3, align 8
  %5 = getelementptr inbounds nuw %"class.std::__cxx11::_List_base", ptr %4, i32 0, i32 0
  %6 = getelementptr inbounds nuw %"struct.std::__cxx11::_List_base<std::unordered_set<pxrInternal_v0_24__pxrReserved__::TraceDynamicKey, pxrInternal_v0_24__pxrReserved__::TraceDynamicKey::HashFunctor>, std::allocator<std::unordered_set<pxrInternal_v0_24__pxrReserved__::TraceDynamicKey, pxrInternal_v0_24__pxrReserved__::TraceDynamicKey::HashFunctor>>>::_List_impl", ptr %5, i32 0, i32 0
  call void @_ZNSt14_List_iteratorISt13unordered_setIN32pxrInternal_v0_24__pxrReserved__15TraceDynamicKeyENS2_11HashFunctorESt8equal_toIS2_ESaIS2_EEEC2EPNSt8__detail15_List_node_baseE(ptr noundef nonnull align 8 dereferenceable(8) %2, ptr noundef %6) #10
  %7 = getelementptr inbounds nuw %"struct.std::_List_iterator", ptr %2, i32 0, i32 0
  %8 = load ptr, ptr %7, align 8
  ret ptr %8
}

; Function Attrs: mustprogress uwtable
define void @_ZN32pxrInternal_v0_24__pxrReserved__14TraceEventList6AppendEOS0_(ptr noundef nonnull align 8 dereferenceable(160) %0, ptr noundef nonnull align 8 dereferenceable(160) %1) #0 align 2 {
  %3 = alloca ptr, align 8
  %4 = alloca ptr, align 8
  %5 = alloca %"struct.std::_List_const_iterator", align 8
  %6 = alloca %"struct.std::_List_iterator", align 8
  store ptr %0, ptr %3, align 8
  store ptr %1, ptr %4, align 8
  %7 = load ptr, ptr %3, align 8
  %8 = getelementptr inbounds nuw %"class.pxrInternal_v0_24__pxrReserved__::TraceEventList", ptr %7, i32 0, i32 1
  %9 = getelementptr inbounds nuw %"class.pxrInternal_v0_24__pxrReserved__::TraceEventList", ptr %7, i32 0, i32 1
  %10 = call ptr @_ZNSt7__cxx114listISt13unordered_setIN32pxrInternal_v0_24__pxrReserved__15TraceDynamicKeyENS3_11HashFunctorESt8equal_toIS3_ESaIS3_EESaIS8_EE3endEv(ptr noundef nonnull align 8 dereferenceable(24) %9) #10
  %11 = getelementptr inbounds nuw %"struct.std::_List_iterator", ptr %6, i32 0, i32 0
  store ptr %10, ptr %11, align 8
  call void @_ZNSt20_List_const_iteratorISt13unordered_setIN32pxrInternal_v0_24__pxrReserved__15TraceDynamicKeyENS2_11HashFunctorESt8equal_toIS2_ESaIS2_EEEC2ERKSt14_List_iteratorIS7_E(ptr noundef nonnull align 8 dereferenceable(8) %5, ptr noundef nonnull align 8 dereferenceable(8) %6) #10
  %12 = load ptr, ptr %4, align 8
  %13 = getelementptr inbounds nuw %"class.pxrInternal_v0_24__pxrReserved__::TraceEventList", ptr %12, i32 0, i32 1
  %14 = getelementptr inbounds nuw %"struct.std::_List_const_iterator", ptr %5, i32 0, i32 0
  %15 = load ptr, ptr %14, align 8
  call void @_ZNSt7__cxx114listISt13unordered_setIN32pxrInternal_v0_24__pxrReserved__15TraceDynamicKeyENS3_11HashFunctorESt8equal_toIS3_ESaIS3_EESaIS8_EE6spliceESt20_List_const_iteratorIS8_EOSA_(ptr noundef nonnull align 8 dereferenceable(24) %8, ptr %15, ptr noundef nonnull align 8 dereferenceable(24) %13) #10
  %16 = getelementptr inbounds nuw %"class.pxrInternal_v0_24__pxrReserved__::TraceEventList", ptr %7, i32 0, i32 0
  %17 = load ptr, ptr %4, align 8
  %18 = getelementptr inbounds nuw %"class.pxrInternal_v0_24__pxrReserved__::TraceEventList", ptr %17, i32 0, i32 0
  call void @_ZN32pxrInternal_v0_24__pxrReserved__19TraceEventContainer6AppendEOS0_(ptr noundef nonnull align 8 dereferenceable(32) %16, ptr noundef nonnull align 8 dereferenceable(32) %18)
  ret void
}