; Function Attrs: mustprogress uwtable
define void @_ZN32pxrInternal_v0_24__pxrReserved__14TraceEventList6AppendEOS0_(ptr noundef nonnull align 8 dereferenceable(160) %0, ptr noundef nonnull align 8 dereferenceable(160) %1) local_unnamed_addr #0 align 2 personality ptr @__gxx_personality_v0 {
  %3 = getelementptr inbounds nuw i8, ptr %1, i64 32
  %4 = load ptr, ptr %3, align 8
  %5 = icmp eq ptr %4, %3
  br i1 %5, label %_ZNSt7__cxx114listISt13unordered_setIN32pxrInternal_v0_24__pxrReserved__15TraceDynamicKeyENS3_11HashFunctorESt8equal_toIS3_ESaIS3_EESaIS8_EE6spliceESt20_List_const_iteratorIS8_EOSA_.exit, label %6

6:                                                ; preds = %2
  %7 = getelementptr inbounds nuw i8, ptr %0, i64 32
  tail call void @_ZNSt8__detail15_List_node_base11_M_transferEPS0_S1_(ptr noundef nonnull align 8 dereferenceable(16) %7, ptr noundef %4, ptr noundef nonnull %3) #12
  %8 = getelementptr inbounds i8, ptr %1, i64 48
  %9 = load i64, ptr %8, align 8
  %10 = getelementptr inbounds i8, ptr %0, i64 48
  %11 = load i64, ptr %10, align 8
  %12 = add i64 %11, %9
  store i64 %12, ptr %10, align 8
  store i64 0, ptr %8, align 8
  br label %_ZNSt7__cxx114listISt13unordered_setIN32pxrInternal_v0_24__pxrReserved__15TraceDynamicKeyENS3_11HashFunctorESt8equal_toIS3_ESaIS3_EESaIS8_EE6spliceESt20_List_const_iteratorIS8_EOSA_.exit

_ZNSt7__cxx114listISt13unordered_setIN32pxrInternal_v0_24__pxrReserved__15TraceDynamicKeyENS3_11HashFunctorESt8equal_toIS3_ESaIS3_EESaIS8_EE6spliceESt20_List_const_iteratorIS8_EOSA_.exit: ; preds = %2, %6
  tail call void @_ZN32pxrInternal_v0_24__pxrReserved__19TraceEventContainer6AppendEOS0_(ptr noundef nonnull align 8 dereferenceable(32) %0, ptr noundef nonnull align 8 dereferenceable(32) %1)
  ret void
}